target datalayout = "e-m:e-p270:32:32-p271:32:32-p272:64:64-i64:64-i128:128-f80:128-n8:16:32:64-S128"
target triple = "x86_64-pc-linux-gnu"

%struct.expert_field = type { i32, i32 }
%struct.MessageHeader = type { [4 x i8], %struct.Version, i8, i8, i32, i32, i32, ptr }
%struct.Version = type { i8, i8 }

@ei_coseventcomm_unknown_giop_msg = internal global %struct.expert_field zeroinitializer, align 4
@ei_coseventcomm_unknown_exception = internal global %struct.expert_field zeroinitializer, align 4
@.str.26 = private unnamed_addr constant [21 x i8] c"Unknown exception %d\00", align 1
@.str.27 = private unnamed_addr constant [24 x i8] c"Unknown GIOP message %d\00", align 1
@boundary = internal global i32 12, align 4

; Function Attrs: null_pointer_is_valid sspstrong uwtable
define internal void @decode_CosEventComm_PushConsumer_push(ptr noundef %0, ptr noundef %1, ptr noundef %2, ptr noundef %3, ptr noundef %4, ptr noundef %5, ptr noundef %6, i1 noundef zeroext %7) #0 {
  %9 = alloca ptr, align 8
  %10 = alloca ptr, align 8
  %11 = alloca ptr, align 8
  %12 = alloca ptr, align 8
  %13 = alloca ptr, align 8
  %14 = alloca ptr, align 8
  %15 = alloca ptr, align 8
  %16 = alloca i8, align 1
  store ptr %0, ptr %9, align 8
  store ptr %1, ptr %10, align 8
  store ptr %2, ptr %11, align 8
  store ptr %3, ptr %12, align 8
  store ptr %4, ptr %13, align 8
  store ptr %5, ptr %14, align 8
  store ptr %6, ptr %15, align 8
  %17 = zext i1 %7 to i8
  store i8 %17, ptr %16, align 1
  %18 = load ptr, ptr %14, align 8
  %19 = getelementptr inbounds nuw %struct.MessageHeader, ptr %18, i32 0, i32 3
  %20 = load i8, ptr %19, align 1
  %21 = zext i8 %20 to i32
  switch i32 %21, label %44 [
    i32 0, label %22
    i32 1, label %32
  ]

22:                                               ; preds = %8
  %23 = load ptr, ptr %9, align 8
  %24 = load ptr, ptr %10, align 8
  %25 = load ptr, ptr %11, align 8
  %26 = load ptr, ptr %12, align 8
  %27 = load ptr, ptr %13, align 8
  %28 = load i8, ptr %16, align 1, !range !6, !noundef !7
  %29 = trunc i8 %28 to i1
  %30 = load i32, ptr @boundary, align 4
  %31 = load ptr, ptr %14, align 8
  call void @get_CDR_any(ptr noundef %23, ptr noundef %24, ptr noundef %25, ptr noundef %26, ptr noundef %27, i1 noundef zeroext %29, i32 noundef %30, ptr noundef %31)
  br label %52

32:                                               ; preds = %8
  %33 = load ptr, ptr %14, align 8
  %34 = getelementptr inbounds nuw %struct.MessageHeader, ptr %33, i32 0, i32 6
  %35 = load i32, ptr %34, align 8
  switch i32 %35, label %36 [
    i32 0, label %43
    i32 1, label %43
  ]

36:                                               ; preds = %32
  %37 = load ptr, ptr %10, align 8
  %38 = load ptr, ptr %12, align 8
  %39 = load ptr, ptr %14, align 8
  %40 = getelementptr inbounds nuw %struct.MessageHeader, ptr %39, i32 0, i32 6
  %41 = load i32, ptr %40, align 8
  %42 = call ptr (ptr, ptr, ptr, ptr, ...) @expert_add_info_format(ptr noundef %37, ptr noundef %38, ptr noundef @ei_coseventcomm_unknown_exception, ptr noundef @.str.26, i32 noundef %41)
  br label %43

43:                                               ; preds = %36, %32, %32
  br label %52

44:                                               ; preds = %8
  %45 = load ptr, ptr %10, align 8
  %46 = load ptr, ptr %12, align 8
  %47 = load ptr, ptr %14, align 8
  %48 = getelementptr inbounds nuw %struct.MessageHeader, ptr %47, i32 0, i32 3
  %49 = load i8, ptr %48, align 1
  %50 = zext i8 %49 to i32
  %51 = call ptr (ptr, ptr, ptr, ptr, ...) @expert_add_info_format(ptr noundef %45, ptr noundef %46, ptr noundef @ei_coseventcomm_unknown_giop_msg, ptr noundef @.str.27, i32 noundef %50)
  br label %52

52:                                               ; preds = %44, %43, %22
  ret void
}